; Function Attrs: mustprogress uwtable
define void @_ZN7rocksdb14NewLockManagerEPNS_24PessimisticTransactionDBERKNS_20TransactionDBOptionsE(ptr noalias nocapture writeonly sret(%"class.std::shared_ptr") align 8 %agg.result, ptr noundef %db, ptr noundef nonnull align 8 dereferenceable(145) %opt) local_unnamed_addr #0 personality ptr @__gxx_personality_v0 {
entry:
  %lock_mgr_handle = getelementptr inbounds i8, ptr %opt, i64 64
  %0 = load ptr, ptr %lock_mgr_handle, align 8
  %cmp.i.not = icmp eq ptr %0, null
  br i1 %cmp.i.not, label %if.else, label %if.then

if.then:                                          ; preds = %entry
  %vtable = load ptr, ptr %0, align 8
  %1 = load ptr, ptr %vtable, align 8
  %call3 = tail call noundef ptr %1(ptr noundef nonnull align 8 dereferenceable(8) %0)
  store ptr %call3, ptr %agg.result, align 8
  %_M_refcount.i.i = getelementptr inbounds i8, ptr %agg.result, i64 8
  %_M_refcount2.i.i = getelementptr inbounds i8, ptr %opt, i64 72
  %2 = load ptr, ptr %_M_refcount2.i.i, align 8
  store ptr %2, ptr %_M_refcount.i.i, align 8
  %cmp.not.i.i.i = icmp eq ptr %2, null
  br i1 %cmp.not.i.i.i, label %return, label %if.then.i.i.i

if.then.i.i.i:                                    ; preds = %if.then
  %_M_use_count.i.i.i.i = getelementptr inbounds i8, ptr %2, i64 8
  %3 = load i8, ptr @__libc_single_threaded, align 1
  %tobool.i.not.i.i.i.i = icmp eq i8 %3, 0
  br i1 %tobool.i.not.i.i.i.i, label %if.else.i.i.i.i.i, label %if.then.i.i.i.i.i

if.then.i.i.i.i.i:                                ; preds = %if.then.i.i.i
  %4 = load i32, ptr %_M_use_count.i.i.i.i, align 4
  %add.i.i.i.i.i = add nsw i32 %4, 1
  store i32 %add.i.i.i.i.i, ptr %_M_use_count.i.i.i.i, align 4
  br label %return

if.else.i.i.i.i.i:                                ; preds = %if.then.i.i.i
  %5 = atomicrmw volatile add ptr %_M_use_count.i.i.i.i, i32 1 acq_rel, align 4
  br label %return

if.else:                                          ; preds = %entry
  %call5 = tail call noalias noundef nonnull dereferenceable(32032) ptr @_Znwm(i64 noundef 32032) #6
  invoke void @_ZN7rocksdb16PointLockManagerC1EPNS_24PessimisticTransactionDBERKNS_20TransactionDBOptionsE(ptr noundef nonnull align 8 dereferenceable(32032) %call5, ptr noundef %db, ptr noundef nonnull align 8 dereferenceable(145) %opt)
          to label %invoke.cont unwind label %lpad

invoke.cont:                                      ; preds = %if.else
  store ptr %call5, ptr %agg.result, align 8
  %_M_refcount.i.i4 = getelementptr inbounds i8, ptr %agg.result, i64 8
  store ptr null, ptr %_M_refcount.i.i4, align 8
  %call.i.i.i.i = invoke noalias noundef nonnull dereferenceable(24) ptr @_Znwm(i64 noundef 24) #6
          to label %_ZNSt10shared_ptrIN7rocksdb11LockManagerEEC2INS0_16PointLockManagerEvEEPT_.exit unwind label %lpad.i.i.i.i

lpad.i.i.i.i:                                     ; preds = %invoke.cont
  %6 = landingpad { ptr, i32 }
          catch ptr null
  %7 = extractvalue { ptr, i32 } %6, 0
  %8 = tail call ptr @__cxa_begin_catch(ptr %7) #7
  %vtable.i.i.i.i = load ptr, ptr %call5, align 8
  %vfn.i.i.i.i = getelementptr inbounds i8, ptr %vtable.i.i.i.i, i64 8
  %9 = load ptr, ptr %vfn.i.i.i.i, align 8
  tail call void %9(ptr noundef nonnull align 8 dereferenceable(32032) %call5) #7
  invoke void @__cxa_rethrow() #8
          to label %unreachable.i.i.i.i unwind label %lpad3.i.i.i.i

lpad3.i.i.i.i:                                    ; preds = %lpad.i.i.i.i
  %10 = landingpad { ptr, i32 }
          cleanup
  invoke void @__cxa_end_catch()
          to label %common.resume unwind label %terminate.lpad.i.i.i.i

common.resume:                                    ; preds = %lpad3.i.i.i.i, %lpad
  %common.resume.op = phi { ptr, i32 } [ %13, %lpad ], [ %10, %lpad3.i.i.i.i ]
  resume { ptr, i32 } %common.resume.op

terminate.lpad.i.i.i.i:                           ; preds = %lpad3.i.i.i.i
  %11 = landingpad { ptr, i32 }
          catch ptr null
  %12 = extractvalue { ptr, i32 } %11, 0
  tail call void @__clang_call_terminate(ptr %12) #9
  unreachable

unreachable.i.i.i.i:                              ; preds = %lpad.i.i.i.i
  unreachable

_ZNSt10shared_ptrIN7rocksdb11LockManagerEEC2INS0_16PointLockManagerEvEEPT_.exit: ; preds = %invoke.cont
  %_M_use_count.i.i.i.i.i.i = getelementptr inbounds i8, ptr %call.i.i.i.i, i64 8
  store i32 1, ptr %_M_use_count.i.i.i.i.i.i, align 8
  %_M_weak_count.i.i.i.i.i.i = getelementptr inbounds i8, ptr %call.i.i.i.i, i64 12
  store i32 1, ptr %_M_weak_count.i.i.i.i.i.i, align 4
  store ptr getelementptr inbounds ({ [7 x ptr] }, ptr @_ZTVSt15_Sp_counted_ptrIPN7rocksdb16PointLockManagerELN9__gnu_cxx12_Lock_policyE2EE, i64 0, i32 0, i64 2), ptr %call.i.i.i.i, align 8
  %_M_ptr.i.i.i.i.i = getelementptr inbounds i8, ptr %call.i.i.i.i, i64 16
  store ptr %call5, ptr %_M_ptr.i.i.i.i.i, align 8
  store ptr %call.i.i.i.i, ptr %_M_refcount.i.i4, align 8
  br label %return

lpad:                                             ; preds = %if.else
  %13 = landingpad { ptr, i32 }
          cleanup
  tail call void @_ZdlPv(ptr noundef nonnull %call5) #10
  br label %common.resume

return:                                           ; preds = %if.else.i.i.i.i.i, %if.then.i.i.i.i.i, %if.then, %_ZNSt10shared_ptrIN7rocksdb11LockManagerEEC2INS0_16PointLockManagerEvEEPT_.exit
  ret void
}